	.file	"main.c"
	.text
	.globl	base_func
	.type	base_func, @function
base_func:
.LFB2:
	.cfi_startproc
	pushq	%rbp
	.cfi_def_cfa_offset 16
	.cfi_offset 6, -16
	movq	%rsp, %rbp
	.cfi_def_cfa_register 6
	movl	%edi, -20(%rbp)
	movl	%esi, -24(%rbp)
	movl	%edx, -28(%rbp)
	movl	%ecx, -32(%rbp)
	movl	%r8d, -36(%rbp)
	movl	%r9d, -40(%rbp)
	movl	$0, -4(%rbp)
	movl	-20(%rbp), %edx
	movl	-28(%rbp), %eax
	addl	%edx, %eax
	movl	%eax, -4(%rbp)
	movl	-4(%rbp), %eax
	popq	%rbp
	.cfi_def_cfa 7, 8
	ret
	.cfi_endproc
.LFE2:
	.size	base_func, .-base_func
	.globl	comp_func
	.type	comp_func, @function
comp_func:
.LFB3:
	.cfi_startproc
	pushq	%rbp
	.cfi_def_cfa_offset 16
	.cfi_offset 6, -16
	movq	%rsp, %rbp
	.cfi_def_cfa_register 6
	movl	%edi, -4(%rbp)
	movq	%rsi, -16(%rbp)
	movq	-16(%rbp), %rax
	movl	-4(%rbp), %edx
	movl	%edx, (%rax)
	movl	-4(%rbp), %eax
	popq	%rbp
	.cfi_def_cfa 7, 8
	ret
	.cfi_endproc
.LFE3:
	.size	comp_func, .-comp_func
	.globl	main
	.type	main, @function
main:
.LFB4:
	.cfi_startproc
	pushq	%rbp
	.cfi_def_cfa_offset 16
	.cfi_offset 6, -16
	movq	%rsp, %rbp
	.cfi_def_cfa_register 6
	subq	$48, %rsp
	movq	%fs:40, %rax
	movq	%rax, -8(%rbp)
	xorl	%eax, %eax
	movl	$0, -40(%rbp)
	movl	$1, -36(%rbp)
	movl	$2, -32(%rbp)
	movl	$3, -28(%rbp)
	movl	$4, -24(%rbp)
	movl	$5, -20(%rbp)
	movl	-20(%rbp), %r8d
	movl	-24(%rbp), %edi
	movl	-28(%rbp), %ecx
	movl	-32(%rbp), %edx
	movl	-36(%rbp), %esi
	movl	-40(%rbp), %eax
	movl	%r8d, %r9d
	movl	%edi, %r8d
	movl	%eax, %edi
	call	base_func
	movl	%eax, -40(%rbp)
	leaq	-16(%rbp), %rdx
	movl	-40(%rbp), %eax
	movq	%rdx, %rsi
	movl	%eax, %edi
	call	comp_func
	movl	%eax, -32(%rbp)
	movl	$0, %eax
	movq	-8(%rbp), %rcx
	xorq	%fs:40, %rcx
	je	.L7
	call	__stack_chk_fail
.L7:
	leave
	.cfi_def_cfa 7, 8
	ret
	.cfi_endproc
.LFE4:
	.size	main, .-main
	.ident	"GCC: (Ubuntu 5.4.0-6ubuntu1~16.04.10) 5.4.0 20160609"
	.section	.note.GNU-stack,"",@progbits
